; Function Attrs: mustprogress uwtable
define noundef i64 @_ZNK5arrow17LoggingMemoryPool15num_allocationsEv(ptr noundef nonnull readonly align 8 captures(none) dereferenceable(16) %0) unnamed_addr #4 align 2 {
  %2 = getelementptr inbounds nuw i8, ptr %0, i64 8
  %3 = load ptr, ptr %2, align 8, !tbaa !44
  %4 = load ptr, ptr %3, align 8, !tbaa !10
  %5 = getelementptr inbounds nuw i8, ptr %4, i64 80
  %6 = load ptr, ptr %5, align 8
  %7 = tail call noundef i64 %6(ptr noundef nonnull align 8 dereferenceable(8) %3)
  %8 = tail call noundef nonnull align 8 dereferenceable(8) ptr @_ZSt16__ostream_insertIcSt11char_traitsIcEERSt13basic_ostreamIT_T0_ES6_PKS3_l(ptr noundef nonnull align 8 dereferenceable(8) @_ZSt4cout, ptr noundef nonnull @.str.13, i64 noundef 17)
  %9 = tail call noundef nonnull align 8 dereferenceable(8) ptr @_ZNSo9_M_insertIlEERSoT_(ptr noundef nonnull align 8 dereferenceable(8) @_ZSt4cout, i64 noundef %7)
  %10 = load ptr, ptr %9, align 8, !tbaa !10
  %11 = getelementptr i8, ptr %10, i64 -24
  %12 = load i64, ptr %11, align 8
  %13 = getelementptr inbounds i8, ptr %9, i64 %12
  %14 = getelementptr inbounds nuw i8, ptr %13, i64 240
  %15 = load ptr, ptr %14, align 8, !tbaa !47
  %.not.i.i.i = icmp eq ptr %15, null
  br i1 %.not.i.i.i, label %16, label %_ZSt13__check_facetISt5ctypeIcEERKT_PS3_.exit.i.i

16:                                               ; preds = %1
  tail call void @_ZSt16__throw_bad_castv() #36
  unreachable

_ZSt13__check_facetISt5ctypeIcEERKT_PS3_.exit.i.i: ; preds = %1
  %17 = getelementptr inbounds nuw i8, ptr %15, i64 56
  %18 = load i8, ptr %17, align 8, !tbaa !63
  %.not.i1.i.i = icmp eq i8 %18, 0
  br i1 %.not.i1.i.i, label %22, label %19

19:                                               ; preds = %_ZSt13__check_facetISt5ctypeIcEERKT_PS3_.exit.i.i
  %20 = getelementptr inbounds nuw i8, ptr %15, i64 67
  %21 = load i8, ptr %20, align 1, !tbaa !43
  br label %_ZSt4endlIcSt11char_traitsIcEERSt13basic_ostreamIT_T0_ES6_.exit

22:                                               ; preds = %_ZSt13__check_facetISt5ctypeIcEERKT_PS3_.exit.i.i
  tail call void @_ZNKSt5ctypeIcE13_M_widen_initEv(ptr noundef nonnull align 8 dereferenceable(570) %15)
  %23 = load ptr, ptr %15, align 8, !tbaa !10
  %24 = getelementptr inbounds nuw i8, ptr %23, i64 48
  %25 = load ptr, ptr %24, align 8
  %26 = tail call noundef signext i8 %25(ptr noundef nonnull align 8 dereferenceable(570) %15, i8 noundef signext 10)
  br label %_ZSt4endlIcSt11char_traitsIcEERSt13basic_ostreamIT_T0_ES6_.exit

_ZSt4endlIcSt11char_traitsIcEERSt13basic_ostreamIT_T0_ES6_.exit: ; preds = %19, %22
  %.0.i.i.i = phi i8 [ %21, %19 ], [ %26, %22 ]
  %27 = tail call noundef nonnull align 8 dereferenceable(8) ptr @_ZNSo3putEc(ptr noundef nonnull align 8 dereferenceable(8) %9, i8 noundef signext %.0.i.i.i)
  %28 = tail call noundef nonnull align 8 dereferenceable(8) ptr @_ZNSo5flushEv(ptr noundef nonnull align 8 dereferenceable(8) %27)
  ret i64 %7
}